; Function Attrs: nounwind uwtable
define void @png_process_some_data(ptr noalias noundef %0, ptr noalias noundef %1) local_unnamed_addr #0 {
  %3 = icmp eq ptr %0, null
  br i1 %3, label %12, label %4

4:                                                ; preds = %2
  %5 = getelementptr inbounds i8, ptr %0, i64 880
  %6 = load i32, ptr %5, align 8
  switch i32 %6, label %10 [
    i32 0, label %7
    i32 1, label %8
    i32 2, label %9
  ]

7:                                                ; preds = %4
  tail call void @png_push_read_sig(ptr noundef nonnull %0, ptr noundef %1)
  br label %12

8:                                                ; preds = %4
  tail call void @png_push_read_chunk(ptr noundef nonnull %0, ptr noundef %1)
  br label %12

9:                                                ; preds = %4
  tail call void @png_push_read_IDAT(ptr noundef nonnull %0)
  br label %12

10:                                               ; preds = %4
  %11 = getelementptr inbounds i8, ptr %0, i64 864
  store i64 0, ptr %11, align 8
  br label %12

12:                                               ; preds = %2, %10, %9, %8, %7
  ret void
}